; Function Attrs: mustprogress uwtable
define noundef i32 @_ZNK7Imf_3_214RgbaOutputFile15currentScanLineEv(ptr nocapture noundef nonnull readonly align 8 dereferenceable(24) %this) local_unnamed_addr #3 align 2 personality ptr @__gxx_personality_v0 {
entry:
  %_toYca = getelementptr inbounds i8, ptr %this, i64 16
  %0 = load ptr, ptr %_toYca, align 8
  %tobool.not = icmp eq ptr %0, null
  br i1 %tobool.not, label %if.else, label %if.then

if.then:                                          ; preds = %entry
  %call1.i.i.i = tail call noundef i32 @pthread_mutex_lock(ptr noundef nonnull %0) #25
  %tobool.not.i.i = icmp eq i32 %call1.i.i.i, 0
  br i1 %tobool.not.i.i, label %_ZNSt10lock_guardISt5mutexEC2ERS0_.exit, label %if.then.i.i

if.then.i.i:                                      ; preds = %if.then
  tail call void @_ZSt20__throw_system_errori(i32 noundef %call1.i.i.i) #27
  unreachable

_ZNSt10lock_guardISt5mutexEC2ERS0_.exit:          ; preds = %if.then
  %1 = load ptr, ptr %_toYca, align 8
  %_currentScanLine.i = getelementptr inbounds i8, ptr %1, i64 72
  %2 = load i32, ptr %_currentScanLine.i, align 8
  %call1.i.i.i1 = tail call noundef i32 @pthread_mutex_unlock(ptr noundef nonnull %0) #25
  br label %return

if.else:                                          ; preds = %entry
  %_outputFile = getelementptr inbounds i8, ptr %this, i64 8
  %3 = load ptr, ptr %_outputFile, align 8
  %call4 = tail call noundef i32 @_ZNK7Imf_3_210OutputFile15currentScanLineEv(ptr noundef nonnull align 8 dereferenceable(16) %3)
  br label %return

return:                                           ; preds = %if.else, %_ZNSt10lock_guardISt5mutexEC2ERS0_.exit
  %retval.0 = phi i32 [ %2, %_ZNSt10lock_guardISt5mutexEC2ERS0_.exit ], [ %call4, %if.else ]
  ret i32 %retval.0
}